; Function Attrs: nounwind uwtable
define internal fastcc void @Vec_IntPushUnique(ptr noundef captures(none) %0, i32 noundef %1) unnamed_addr #0 {
  %3 = getelementptr inbounds nuw i8, ptr %0, i64 4
  %4 = load i32, ptr %3, align 4
  %5 = icmp sgt i32 %4, 0
  br i1 %5, label %.lr.ph, label %._crit_edge

.lr.ph:                                           ; preds = %2
  %6 = getelementptr inbounds nuw i8, ptr %0, i64 8
  %7 = load ptr, ptr %6, align 8
  %wide.trip.count = zext nneg i32 %4 to i64
  br label %9

8:                                                ; preds = %9
  %indvars.iv.next = add nuw nsw i64 %indvars.iv, 1
  %exitcond.not = icmp eq i64 %indvars.iv.next, %wide.trip.count
  br i1 %exitcond.not, label %._crit_edge, label %9, !llvm.loop !46

9:                                                ; preds = %.lr.ph, %8
  %indvars.iv = phi i64 [ 0, %.lr.ph ], [ %indvars.iv.next, %8 ]
  %10 = getelementptr inbounds nuw i32, ptr %7, i64 %indvars.iv
  %11 = load i32, ptr %10, align 4
  %12 = icmp eq i32 %11, %1
  br i1 %12, label %.loopexit, label %8

._crit_edge:                                      ; preds = %8, %2
  %13 = load i32, ptr %0, align 8
  %14 = icmp eq i32 %4, %13
  br i1 %14, label %15, label %.Vec_IntGrow.exit10_crit_edge.i

.Vec_IntGrow.exit10_crit_edge.i:                  ; preds = %._crit_edge
  %.phi.trans.insert.i = getelementptr inbounds nuw i8, ptr %0, i64 8
  %.pre.i = load ptr, ptr %.phi.trans.insert.i, align 8
  br label %Vec_IntPush.exit

15:                                               ; preds = %._crit_edge
  %16 = icmp slt i32 %4, 16
  br i1 %16, label %17, label %25

17:                                               ; preds = %15
  %18 = getelementptr inbounds nuw i8, ptr %0, i64 8
  %19 = load ptr, ptr %18, align 8
  %.not9.i.i = icmp eq ptr %19, null
  br i1 %.not9.i.i, label %22, label %20

20:                                               ; preds = %17
  %21 = tail call dereferenceable_or_null(64) ptr @realloc(ptr noundef nonnull %19, i64 noundef 64) #28
  br label %Vec_IntGrow.exit.i

22:                                               ; preds = %17
  %23 = tail call noalias dereferenceable_or_null(64) ptr @malloc(i64 noundef 64) #27
  br label %Vec_IntGrow.exit.i

Vec_IntGrow.exit.i:                               ; preds = %22, %20
  %24 = phi ptr [ %21, %20 ], [ %23, %22 ]
  store ptr %24, ptr %18, align 8
  store i32 16, ptr %0, align 8
  br label %Vec_IntPush.exit

25:                                               ; preds = %15
  %26 = shl nuw nsw i32 %4, 1
  %27 = getelementptr inbounds nuw i8, ptr %0, i64 8
  %28 = load ptr, ptr %27, align 8
  %.not9.i9.i = icmp eq ptr %28, null
  %29 = zext nneg i32 %26 to i64
  %30 = shl nuw nsw i64 %29, 2
  br i1 %.not9.i9.i, label %33, label %31

31:                                               ; preds = %25
  %32 = tail call ptr @realloc(ptr noundef nonnull %28, i64 noundef %30) #28
  br label %35

33:                                               ; preds = %25
  %34 = tail call noalias ptr @malloc(i64 noundef %30) #27
  br label %35

35:                                               ; preds = %33, %31
  %36 = phi ptr [ %32, %31 ], [ %34, %33 ]
  store ptr %36, ptr %27, align 8
  store i32 %26, ptr %0, align 8
  br label %Vec_IntPush.exit

Vec_IntPush.exit:                                 ; preds = %.Vec_IntGrow.exit10_crit_edge.i, %Vec_IntGrow.exit.i, %35
  %37 = phi ptr [ %.pre.i, %.Vec_IntGrow.exit10_crit_edge.i ], [ %36, %35 ], [ %24, %Vec_IntGrow.exit.i ]
  %38 = load i32, ptr %3, align 4
  %39 = add nsw i32 %38, 1
  store i32 %39, ptr %3, align 4
  %40 = sext i32 %38 to i64
  %41 = getelementptr inbounds i32, ptr %37, i64 %40
  store i32 %1, ptr %41, align 4
  br label %.loopexit

.loopexit:                                        ; preds = %9, %Vec_IntPush.exit
  ret void
}